target datalayout = "e-m:e-p270:32:32-p271:32:32-p272:64:64-i64:64-i128:128-f80:128-n8:16:32:64-S128"
target triple = "x86_64-pc-linux-gnu"

; Function Attrs: null_pointer_is_valid sspstrong uwtable
define internal ptr @escape_string_len(ptr noundef %0, ptr noundef %1, i64 noundef %2, ptr noundef %3, i1 noundef zeroext %4, i8 noundef signext %5, i1 noundef zeroext %6) #0 {
  %8 = alloca ptr, align 8
  %9 = alloca ptr, align 8
  %10 = alloca i64, align 8
  %11 = alloca ptr, align 8
  %12 = alloca i8, align 1
  %13 = alloca i8, align 1
  %14 = alloca i8, align 1
  %15 = alloca i8, align 1
  %16 = alloca i8, align 1
  %17 = alloca ptr, align 8
  %18 = alloca i64, align 8
  %19 = alloca i64, align 8
  store ptr %0, ptr %8, align 8
  store ptr %1, ptr %9, align 8
  store i64 %2, ptr %10, align 8
  store ptr %3, ptr %11, align 8
  %20 = zext i1 %4 to i8
  store i8 %20, ptr %12, align 1
  store i8 %5, ptr %13, align 1
  %21 = zext i1 %6 to i8
  store i8 %21, ptr %14, align 1
  call void @llvm.lifetime.start.p0(i64 1, ptr %15) #15
  call void @llvm.lifetime.start.p0(i64 1, ptr %16) #15
  call void @llvm.lifetime.start.p0(i64 8, ptr %17) #15
  call void @llvm.lifetime.start.p0(i64 8, ptr %18) #15
  call void @llvm.lifetime.start.p0(i64 8, ptr %19) #15
  %22 = load i64, ptr %10, align 8
  %23 = icmp slt i64 %22, 0
  br i1 %23, label %24, label %27

24:                                               ; preds = %7
  %25 = load ptr, ptr %9, align 8
  %26 = call i64 @strlen(ptr noundef %25) #16
  store i64 %26, ptr %10, align 8
  br label %27

27:                                               ; preds = %24, %7
  %28 = load i64, ptr %10, align 8
  store i64 %28, ptr %18, align 8
  %29 = load i8, ptr %12, align 1, !range !25, !noundef !26
  %30 = trunc i8 %29 to i1
  br i1 %30, label %31, label %34

31:                                               ; preds = %27
  %32 = load i64, ptr %18, align 8
  %33 = add i64 %32, 2
  store i64 %33, ptr %18, align 8
  br label %34

34:                                               ; preds = %31, %27
  %35 = load ptr, ptr %8, align 8
  %36 = load i64, ptr %18, align 8
  %37 = call noalias ptr @wmem_strbuf_new_sized(ptr noundef %35, i64 noundef %36)
  store ptr %37, ptr %17, align 8
  %38 = load i8, ptr %12, align 1, !range !25, !noundef !26
  %39 = trunc i8 %38 to i1
  br i1 %39, label %40, label %47

40:                                               ; preds = %34
  %41 = load i8, ptr %13, align 1
  %42 = sext i8 %41 to i32
  %43 = icmp ne i32 %42, 0
  br i1 %43, label %44, label %47

44:                                               ; preds = %40
  %45 = load ptr, ptr %17, align 8
  %46 = load i8, ptr %13, align 1
  call void @wmem_strbuf_append_c(ptr noundef %45, i8 noundef signext %46)
  br label %47

47:                                               ; preds = %44, %40, %34
  store i64 0, ptr %19, align 8
  br label %48

48:                                               ; preds = %107, %47
  %49 = load i64, ptr %19, align 8
  %50 = load i64, ptr %10, align 8
  %51 = icmp slt i64 %49, %50
  br i1 %51, label %52, label %110

52:                                               ; preds = %48
  %53 = load ptr, ptr %9, align 8
  %54 = load i64, ptr %19, align 8
  %55 = getelementptr i8, ptr %53, i64 %54
  %56 = load i8, ptr %55, align 1
  store i8 %56, ptr %15, align 1
  %57 = load ptr, ptr %11, align 8
  %58 = load i8, ptr %15, align 1
  %59 = call zeroext i1 %57(i8 noundef signext %58, ptr noundef %16)
  br i1 %59, label %60, label %64

60:                                               ; preds = %52
  %61 = load ptr, ptr %17, align 8
  call void @wmem_strbuf_append_c(ptr noundef %61, i8 noundef signext 92)
  %62 = load ptr, ptr %17, align 8
  %63 = load i8, ptr %16, align 1
  call void @wmem_strbuf_append_c(ptr noundef %62, i8 noundef signext %63)
  br label %106

64:                                               ; preds = %52
  %65 = load i8, ptr %15, align 1
  %66 = sext i8 %65 to i32
  %67 = load i8, ptr %13, align 1
  %68 = sext i8 %67 to i32
  %69 = icmp eq i32 %66, %68
  br i1 %69, label %70, label %87

70:                                               ; preds = %64
  %71 = load i8, ptr %13, align 1
  %72 = sext i8 %71 to i32
  %73 = icmp ne i32 %72, 0
  br i1 %73, label %74, label %87

74:                                               ; preds = %70
  %75 = load i8, ptr %14, align 1, !range !25, !noundef !26
  %76 = trunc i8 %75 to i1
  br i1 %76, label %77, label %82

77:                                               ; preds = %74
  %78 = load ptr, ptr %17, align 8
  %79 = load i8, ptr %15, align 1
  call void @wmem_strbuf_append_c(ptr noundef %78, i8 noundef signext %79)
  %80 = load ptr, ptr %17, align 8
  %81 = load i8, ptr %15, align 1
  call void @wmem_strbuf_append_c(ptr noundef %80, i8 noundef signext %81)
  br label %86

82:                                               ; preds = %74
  %83 = load ptr, ptr %17, align 8
  call void @wmem_strbuf_append_c(ptr noundef %83, i8 noundef signext 92)
  %84 = load ptr, ptr %17, align 8
  %85 = load i8, ptr %15, align 1
  call void @wmem_strbuf_append_c(ptr noundef %84, i8 noundef signext %85)
  br label %86

86:                                               ; preds = %82, %77
  br label %105

87:                                               ; preds = %70, %64
  %88 = load i8, ptr %15, align 1
  %89 = sext i8 %88 to i32
  %90 = icmp eq i32 %89, 92
  br i1 %90, label %91, label %101

91:                                               ; preds = %87
  %92 = load i8, ptr %13, align 1
  %93 = sext i8 %92 to i32
  %94 = icmp ne i32 %93, 0
  br i1 %94, label %95, label %101

95:                                               ; preds = %91
  %96 = load i8, ptr %14, align 1, !range !25, !noundef !26
  %97 = trunc i8 %96 to i1
  br i1 %97, label %101, label %98

98:                                               ; preds = %95
  %99 = load ptr, ptr %17, align 8
  call void @wmem_strbuf_append_c(ptr noundef %99, i8 noundef signext 92)
  %100 = load ptr, ptr %17, align 8
  call void @wmem_strbuf_append_c(ptr noundef %100, i8 noundef signext 92)
  br label %104

101:                                              ; preds = %95, %91, %87
  %102 = load ptr, ptr %17, align 8
  %103 = load i8, ptr %15, align 1
  call void @wmem_strbuf_append_c(ptr noundef %102, i8 noundef signext %103)
  br label %104

104:                                              ; preds = %101, %98
  br label %105

105:                                              ; preds = %104, %86
  br label %106

106:                                              ; preds = %105, %60
  br label %107

107:                                              ; preds = %106
  %108 = load i64, ptr %19, align 8
  %109 = add i64 %108, 1
  store i64 %109, ptr %19, align 8
  br label %48, !llvm.loop !29

110:                                              ; preds = %48
  %111 = load i8, ptr %12, align 1, !range !25, !noundef !26
  %112 = trunc i8 %111 to i1
  br i1 %112, label %113, label %120

113:                                              ; preds = %110
  %114 = load i8, ptr %13, align 1
  %115 = sext i8 %114 to i32
  %116 = icmp ne i32 %115, 0
  br i1 %116, label %117, label %120

117:                                              ; preds = %113
  %118 = load ptr, ptr %17, align 8
  %119 = load i8, ptr %13, align 1
  call void @wmem_strbuf_append_c(ptr noundef %118, i8 noundef signext %119)
  br label %120

120:                                              ; preds = %117, %113, %110
  %121 = load ptr, ptr %17, align 8
  %122 = call ptr @wmem_strbuf_finalize(ptr noundef %121)
  call void @llvm.lifetime.end.p0(i64 8, ptr %19) #15
  call void @llvm.lifetime.end.p0(i64 8, ptr %18) #15
  call void @llvm.lifetime.end.p0(i64 8, ptr %17) #15
  call void @llvm.lifetime.end.p0(i64 1, ptr %16) #15
  call void @llvm.lifetime.end.p0(i64 1, ptr %15) #15
  ret ptr %122
}

; Function Attrs: null_pointer_is_valid sspstrong uwtable
define ptr @ws_escape_string_len(ptr noundef %0, ptr noundef %1, i64 noundef %2, i1 noundef zeroext %3) #0 {
  %5 = alloca ptr, align 8
  %6 = alloca ptr, align 8
  %7 = alloca i64, align 8
  %8 = alloca i8, align 1
  store ptr %0, ptr %5, align 8
  store ptr %1, ptr %6, align 8
  store i64 %2, ptr %7, align 8
  %9 = zext i1 %3 to i8
  store i8 %9, ptr %8, align 1
  %10 = load ptr, ptr %5, align 8
  %11 = load ptr, ptr %6, align 8
  %12 = load i64, ptr %7, align 8
  %13 = load i8, ptr %8, align 1, !range !25, !noundef !26
  %14 = trunc i8 %13 to i1
  %15 = call ptr @escape_string_len(ptr noundef %10, ptr noundef %11, i64 noundef %12, ptr noundef @escape_char, i1 noundef zeroext %14, i8 noundef signext 34, i1 noundef zeroext false)
  ret ptr %15
}