; Function Attrs: null_pointer_is_valid sspstrong uwtable
define ptr @ws_escape_string_len(ptr noundef %0, ptr noundef readonly captures(none) %1, i64 noundef %2, i1 noundef zeroext %3) local_unnamed_addr #0 {
  %5 = icmp slt i64 %2, 0
  br i1 %5, label %6, label %8

6:                                                ; preds = %4
  %7 = tail call i64 @strlen(ptr noundef readonly %1) #24
  br label %8

8:                                                ; preds = %6, %4
  %.054.i = phi i64 [ %7, %6 ], [ %2, %4 ]
  %9 = add i64 %.054.i, 2
  %spec.select.i = select i1 %3, i64 %9, i64 %.054.i
  %10 = tail call noalias ptr @wmem_strbuf_new_sized(ptr noundef %0, i64 noundef %spec.select.i)
  br i1 %3, label %11, label %12

11:                                               ; preds = %8
  tail call void @wmem_strbuf_append_c(ptr noundef %10, i8 noundef signext 34)
  br label %12

12:                                               ; preds = %11, %8
  %13 = icmp sgt i64 %.054.i, 0
  br i1 %13, label %.lr.ph.split.split.i, label %._crit_edge.i

.lr.ph.split.split.i:                             ; preds = %12, %24
  %.056.i = phi i64 [ %25, %24 ], [ 0, %12 ]
  %14 = getelementptr i8, ptr %1, i64 %.056.i
  %15 = load i8, ptr %14, align 1
  switch i8 %15, label %24 [
    i8 7, label %23
    i8 8, label %.sink.split
    i8 12, label %16
    i8 10, label %17
    i8 13, label %18
    i8 9, label %19
    i8 11, label %20
    i8 92, label %21
    i8 0, label %22
    i8 34, label %21
  ]

16:                                               ; preds = %.lr.ph.split.split.i
  br label %.sink.split

17:                                               ; preds = %.lr.ph.split.split.i
  br label %.sink.split

18:                                               ; preds = %.lr.ph.split.split.i
  br label %.sink.split

19:                                               ; preds = %.lr.ph.split.split.i
  br label %.sink.split

20:                                               ; preds = %.lr.ph.split.split.i
  br label %.sink.split

21:                                               ; preds = %.lr.ph.split.split.i, %.lr.ph.split.split.i
  br label %.sink.split

22:                                               ; preds = %.lr.ph.split.split.i
  br label %.sink.split

23:                                               ; preds = %.lr.ph.split.split.i
  br label %.sink.split

.sink.split:                                      ; preds = %23, %16, %17, %18, %19, %20, %21, %22, %.lr.ph.split.split.i
  %.sink67.i.ph = phi i8 [ 97, %23 ], [ 48, %22 ], [ %15, %21 ], [ 118, %20 ], [ 116, %19 ], [ 114, %18 ], [ 110, %17 ], [ 102, %16 ], [ 98, %.lr.ph.split.split.i ]
  tail call void @wmem_strbuf_append_c(ptr noundef %10, i8 noundef signext 92)
  br label %24

24:                                               ; preds = %.sink.split, %.lr.ph.split.split.i
  %.sink67.i = phi i8 [ %15, %.lr.ph.split.split.i ], [ %.sink67.i.ph, %.sink.split ]
  tail call void @wmem_strbuf_append_c(ptr noundef %10, i8 noundef signext %.sink67.i)
  %25 = add nuw nsw i64 %.056.i, 1
  %exitcond62.not.i = icmp eq i64 %25, %.054.i
  br i1 %exitcond62.not.i, label %._crit_edge.i, label %.lr.ph.split.split.i, !llvm.loop !27

._crit_edge.i:                                    ; preds = %24, %12
  br i1 %3, label %26, label %escape_string_len.exit

26:                                               ; preds = %._crit_edge.i
  tail call void @wmem_strbuf_append_c(ptr noundef %10, i8 noundef signext 34)
  br label %escape_string_len.exit

escape_string_len.exit:                           ; preds = %._crit_edge.i, %26
  %27 = tail call ptr @wmem_strbuf_finalize(ptr noundef %10)
  ret ptr %27
}